Certificate:
    Data:
        Version: 3 (0x2)
        Serial Number: 1 (0x1)
        Signature Algorithm: sha256WithRSAEncryption
        Issuer: CN=Test CA
        Validity
            Not Before: Jan  1 00:00:00 2020 GMT
            Not After : Jan  1 00:00:00 2050 GMT
        Subject: C=XX, ST=Test, O=Test, CN=example.com
        Subject Public Key Info:
            Public Key Algorithm: rsaEncryption
                Public-Key: (2048 bit)
                Modulus:
                    00:ae:b7:f9:a6:7b:23:6c:cd:14:39:64:ea:7f:d4:
                    c4:49:be:d6:17:91:67:c3:ae:c3:d6:3f:4c:e2:dd:
                    eb:b0:11:c1:23:16:bd:46:01:db:0a:4f:f9:4a:1b:
                    98:51:19:c8:61:a5:0c:41:42:6d:1b:72:6a:ce:ab:
                    bc:13:94:30:e5:01:dc:0f:2b:d9:bb:33:13:2f:87:
                    82:1f:c9:70:8e:67:eb:06:0b:b9:61:2d:b0:ca:e1:
                    c8:73:75:10:9c:c9:d7:2b:de:0d:63:d2:f8:bd:10:
                    b0:a9:4a:0d:30:b1:67:69:6c:dd:d4:32:cb:c9:76:
                    23:d0:f8:fb:6f:39:11:61:13:3f:fd:4b:8a:25:5d:
                    cc:5f:2f:9b:e8:5e:54:25:b9:61:f4:df:4e:2d:e8:
                    99:8b:7f:ac:9a:23:94:6b:e1:c5:6c:e3:58:b0:aa:
                    36:b8:bb:64:d6:7e:f5:64:d2:ff:e8:4b:25:86:d0:
                    23:fb:f2:42:f4:5f:22:c6:92:5c:07:32:23:98:90:
                    59:73:50:70:38:c5:27:20:74:83:a0:c7:72:b3:52:
                    e1:f4:b9:e4:24:ee:81:95:93:60:f5:9d:f9:c2:61:
                    98:bd:72:7c:eb:47:aa:84:aa:91:72:79:c2:79:24:
                    6b:f7:e8:b0:a2:ec:8e:ad:51:0c:30:94:fa:75:10:
                    96:1b
                Exponent: 65537 (0x10001)
        X509v3 extensions:
            X509v3 Subject Alternative Name: 
                DNS:example.com, DNS:www.example.com, IP Address:1.2.3.4
            X509v3 Key Usage: critical
                Digital Signature, Key Encipherment
            X509v3 Extended Key Usage: 
                TLS Web Server Authentication
            X509v3 Basic Constraints: 
                CA:FALSE
            X509v3 Subject Key Identifier: 
                25:12:5F:8F:63:D1:06:76:76:1A:A1:88:45:1B:4D:E8:DC:D9:C5:6F
            X509v3 Authority Key Identifier: 
                99:DB:C4:3F:BF:8E:E3:6B:D4:BB:34:84:15:EF:F4:78:8D:5A:A9:0F
    Signature Algorithm: sha256WithRSAEncryption
    Signature Value:
        d0:2d:b6:71:e7:f8:bc:81:54:91:63:a4:53:b6:8e:e8:28:90:
        68:e0:7a:e4:a0:a7:26:cb:2b:ec:04:74:a0:46:d9:2b:01:14:
        64:4d:15:6e:f9:9c:75:fd:7c:52:1e:07:d0:ad:d2:f0:93:db:
        0e:d5:d9:c4:b6:45:2e:d0:86:16:b1:53:bf:ab:79:a8:c1:b3:
        2d:dc:f0:a4:31:b7:31:8a:9c:ab:41:7a:66:18:fb:e4:10:75:
        95:18:7c:51:e9:bb:c4:f9:0c:05:70:7d:7b:5b:9a:34:4f:73:
        62:43:79:f0:21:7d:a3:39:e2:38:f5:02:22:92:74:5c:c8:77:
        a9:df:39:4c:06:6c:75:8a:6a:69:bb:bb:25:cb:24:05:bf:f2:
        ce:59:3c:53:ab:46:05:e8:e2:63:86:11:6b:15:4e:2c:d6:1f:
        c8:ee:1a:b4:b5:6e:a9:e4:f1:da:58:4f:53:3d:56:58:da:8a:
        11:7a:12:20:65:b3:0f:3f:68:69:83:db:0c:ee:ae:ff:71:43:
        99:f9:db:c2:6d:ab:88:40:21:4f:16:6e:72:0a:d4:46:b3:cf:
        94:9f:a2:7f:dd:e7:71:ff:3b:27:3e:0d:91:23:2e:a4:a5:ce:
        22:84:52:f8:55:44:55:99:b9:12:d4:bb:31:29:e9:1d:d6:12:
        7c:f4:e6:5b
-----BEGIN CERTIFICATE-----
MIIDczCCAlugAwIBAgIBATANBgkqhkiG9w0BAQsFADASMRAwDgYDVQQDDAdUZXN0
IENBMCAXDTIwMDEwMTAwMDAwMFoYDzIwNTAwMTAxMDAwMDAwWjBBMQswCQYDVQQG
EwJYWDENMAsGA1UECAwEVGVzdDENMAsGA1UECgwEVGVzdDEUMBIGA1UEAwwLZXhh
bXBsZS5jb20wggEiMA0GCSqGSIb3DQEBAQUAA4IBDwAwggEKAoIBAQCut/mmeyNs
zRQ5ZOp/1MRJvtYXkWfDrsPWP0zi3euwEcEjFr1GAdsKT/lKG5hRGchhpQxBQm0b
cmrOq7wTlDDlAdwPK9m7MxMvh4IfyXCOZ+sGC7lhLbDK4chzdRCcydcr3g1j0vi9
ELCpSg0wsWdpbN3UMsvJdiPQ+PtvORFhEz/9S4olXcxfL5voXlQluWH0304t6JmL
f6yaI5Rr4cVs41iwqja4u2TWfvVk0v/oSyWG0CP78kL0XyLGklwHMiOYkFlzUHA4
xScgdIOgx3KzUuH0ueQk7oGVk2D1nfnCYZi9cnzrR6qEqpFyecJ5JGv36LCi7I6t
UQwwlPp1EJYbAgMBAAGjgaIwgZ8wLQYDVR0RBCYwJIILZXhhbXBsZS5jb22CD3d3
dy5leGFtcGxlLmNvbYcEAQIDBDAOBgNVHQ8BAf8EBAMCBaAwEwYDVR0lBAwwCgYI
KwYBBQUHAwEwCQYDVR0TBAIwADAdBgNVHQ4EFgQUJRJfj2PRBnZ2GqGIRRtN6NzZ
xW8wHwYDVR0jBBgwFoAUmdvEP7+O42vUuzSEFe/0eI1aqQ8wDQYJKoZIhvcNAQEL
BQADggEBANAttnHn+LyBVJFjpFO2jugokGjgeuSgpybLK+wEdKBG2SsBFGRNFW75
nHX9fFIeB9Ct0vCT2w7V2cS2RS7QhhaxU7+reajBsy3c8KQxtzGKnKtBemYY++QQ
dZUYfFHpu8T5DAVwfXtbmjRPc2JDefAhfaM54jj1AiKSdFzId6nfOUwGbHWKamm7
uyXLJAW/8s5ZPFOrRgXo4mOGEWsVTizWH8juGrS1bqnk8dpYT1M9VljaihF6EiBl
sw8/aGmD2wzurv9xQ5n528Jtq4hAIU8WbnIK1Eazz5Sfon/d53H/Oyc+DZEjLqSl
ziKEUvhVRFWZuRLUuzEp6R3WEnz05ls=
-----END CERTIFICATE-----
-----BEGIN PRIVATE KEY-----
MIIEvgIBADANBgkqhkiG9w0BAQEFAASCBKgwggSkAgEAAoIBAQCut/mmeyNszRQ5
ZOp/1MRJvtYXkWfDrsPWP0zi3euwEcEjFr1GAdsKT/lKG5hRGchhpQxBQm0bcmrO
q7wTlDDlAdwPK9m7MxMvh4IfyXCOZ+sGC7lhLbDK4chzdRCcydcr3g1j0vi9ELCp
Sg0wsWdpbN3UMsvJdiPQ+PtvORFhEz/9S4olXcxfL5voXlQluWH0304t6JmLf6ya
I5Rr4cVs41iwqja4u2TWfvVk0v/oSyWG0CP78kL0XyLGklwHMiOYkFlzUHA4xScg
dIOgx3KzUuH0ueQk7oGVk2D1nfnCYZi9cnzrR6qEqpFyecJ5JGv36LCi7I6tUQww
lPp1EJYbAgMBAAECggEAE2VqKiC2dJApxBtfaxSIO/WbF9+1CMTAieraEr93OEMo
UUhnd7uiAPmS37bDiJFXrPthKmeA7FCd6dan2PaVHP9BWk/QapdHdHnTKMs4mx6P
OUsY5+BmJYe+NI8U6or/v6d1jhTwNzEAo7KMV1ECfXIwCCwhcnqSjFLvus+3jbKh
nrefYvKuk5BPiby9hVnOpTBKXgDxGzDZ6MVvo89alLCjbRWM3LkKDylXQE+TzLv7
StPoAWQs51+0KgiD2FYm+JSuUsstUsWscjV0FxAo67bvdF9zUebX0QBYDBpfyE88
Y/Bgol2i75pAQJLOQwrp0KR/iKOnoRuIG3yfNooBGQKBgQDtHBzlJsDA1lfFI46u
kvKw51Mcs7CpK34qkFOkrvOMW+BP2OSD3skGsNa+C11dQnwD1tsuNx2tImlLRqyb
BGv5oTYDkagAp8xMiSaXFz11tyow5tJ7Q+dIn5Y2zdVGmxZcBY2NfrbaMj2NxNQz
I+gxmnHNLfBeGPIxPN4GHH1MowKBgQC8o2LSk4nMER/uw6zkFEBQbkKdvHbHQTyZ
re2MktR83pTuf3RrZTf9+Z/lzJiW3ed60lhDL70NeGyc3tMXfLIYxPXYkLqSBAhG
h69hWywBY0K9x/BSnHGeesuIQ4gH6Vjmb0b/aGd1erm56nJ1CUvkGmxGBwC4KW7O
CbK+HihwKQKBgQCIFQNsbNJhmmLjTOX9wW6yIwFrTqHMZZ7SdOTcdmBnJO/XQ8ba
/EjpoyKMDd+2v4qHdY9ztcQ9cqt1vYkgqugBbAmhAL6oKaWyI2DXhEoMvmPjjwYs
Iquh3Z2LtJR8IlQx2ioElD4DeqQjMl0LQMdpeJdpx7zVdIHDyoguf7lV+wKBgQCf
NzxKxdJxliagrTG5FEqwWFALuK18Qli20XGFy8xjVK7ZmmQV3UnkKJRILmbAN62Q
IgfzNVDZFMJ/qSb8VPgxJdTnJEkEwziE5zMk9gHvbetAKYhzAa54d+ZgLbecDd1G
KbgADQv9wUcPX42ZsO4IKjEm7fQyfG4Uo2TlSKkS+QKBgE2s0vRG56iiutN9TUz3
1u0iHcRbUQMUbIx5hBHEg0eQRmzjQOfEhmZi3EEdABJ5ZddjFtPjQ9LA068HSnb5
mEZofsw0bxWKLzj75L9AlnOg08H3ZcG1eXP8h6urpMf5ZeZ1BN0lMtrH67+0efze
zrklt+DvTtgp6V0diZXjgGG3
-----END PRIVATE KEY-----
